; ModuleID = '16/193.c'
source_filename = "16/193.c"
target datalayout = "e-m:e-p270:32:32-p271:32:32-p272:64:64-i64:64-f80:128-n8:16:32:64-S128"
target triple = "x86_64-pc-linux-gnu"

@.str = private unnamed_addr constant [3 x i8] c"%d\00", align 1
@.str.1 = private unnamed_addr constant [3 x i8] c"0\0A\00", align 1

; Function Attrs: noinline nounwind uwtable
define dso_local i32 @main() #0 {
  %1 = alloca i32, align 4
  %2 = alloca [10 x i32], align 16
  %3 = alloca i32, align 4
  %4 = alloca i32, align 4
  %5 = alloca i32, align 4
  store i32 0, i32* %1, align 4
  %6 = call i32 (i8*, ...) @__isoc99_scanf(i8* getelementptr inbounds ([3 x i8], [3 x i8]* @.str, i64 0, i64 0), i32* %3)
  %7 = load i32, i32* %3, align 4
  %8 = icmp eq i32 %7, 0
  br i1 %8, label %9, label %11

9:                                                ; preds = %0
  %10 = call i32 (i8*, ...) @printf(i8* getelementptr inbounds ([3 x i8], [3 x i8]* @.str.1, i64 0, i64 0))
  store i32 0, i32* %1, align 4
  br label %42

11:                                               ; preds = %0
  store i32 1, i32* %4, align 4
  br label %12

12:                                               ; preds = %23, %11
  %13 = load i32, i32* %3, align 4
  %14 = icmp sgt i32 %13, 0
  br i1 %14, label %15, label %26

15:                                               ; preds = %12
  %16 = load i32, i32* %3, align 4
  %17 = srem i32 %16, 10
  %18 = load i32, i32* %4, align 4
  %19 = sext i32 %18 to i64
  %20 = getelementptr inbounds [10 x i32], [10 x i32]* %2, i64 0, i64 %19
  store i32 %17, i32* %20, align 4
  %21 = load i32, i32* %3, align 4
  %22 = sdiv i32 %21, 10
  store i32 %22, i32* %3, align 4
  br label %23

23:                                               ; preds = %15
  %24 = load i32, i32* %4, align 4
  %25 = add nsw i32 %24, 1
  store i32 %25, i32* %4, align 4
  br label %12

26:                                               ; preds = %12
  store i32 1, i32* %5, align 4
  br label %27

27:                                               ; preds = %38, %26
  %28 = load i32, i32* %5, align 4
  %29 = load i32, i32* %4, align 4
  %30 = sub nsw i32 %29, 1
  %31 = icmp sle i32 %28, %30
  br i1 %31, label %32, label %41

32:                                               ; preds = %27
  %33 = load i32, i32* %5, align 4
  %34 = sext i32 %33 to i64
  %35 = getelementptr inbounds [10 x i32], [10 x i32]* %2, i64 0, i64 %34
  %36 = load i32, i32* %35, align 4
  %37 = call i32 (i8*, ...) @printf(i8* getelementptr inbounds ([3 x i8], [3 x i8]* @.str, i64 0, i64 0), i32 %36)
  br label %38

38:                                               ; preds = %32
  %39 = load i32, i32* %5, align 4
  %40 = add nsw i32 %39, 1
  store i32 %40, i32* %5, align 4
  br label %27

41:                                               ; preds = %27
  store i32 0, i32* %1, align 4
  br label %42

42:                                               ; preds = %41, %9
  %43 = load i32, i32* %1, align 4
  ret i32 %43
}

declare dso_local i32 @__isoc99_scanf(i8*, ...) #1

declare dso_local i32 @printf(i8*, ...) #1


!llvm.module.flags = !{!0}
!llvm.ident = !{!1}

!0 = !{i32 1, !"wchar_size", i32 4}
!1 = !{!"clang version 10.0.0-4ubuntu1 "}
