; ModuleID = 'source-C-CXX/15/193.c'
source_filename = "source-C-CXX/15/193.c"
target datalayout = "e-m:e-p270:32:32-p271:32:32-p272:64:64-i64:64-f80:128-n8:16:32:64-S128"
target triple = "x86_64-pc-linux-gnu"

@.str = private unnamed_addr constant [3 x i8] c"%d\00", align 1
@str = private unnamed_addr constant [2 x i8] c"0\00", align 1

; Function Attrs: nofree nounwind sspstrong uwtable
define dso_local i32 @main() local_unnamed_addr #0 {
  %1 = alloca [10 x i32], align 16
  %2 = alloca i32, align 4
  %3 = bitcast [10 x i32]* %1 to i8*
  call void @llvm.lifetime.start.p0i8(i64 40, i8* nonnull %3) #4
  %4 = bitcast i32* %2 to i8*
  call void @llvm.lifetime.start.p0i8(i64 4, i8* nonnull %4) #4
  %5 = call i32 (i8*, ...) @__isoc99_scanf(i8* getelementptr inbounds ([3 x i8], [3 x i8]* @.str, i64 0, i64 0), i32* nonnull %2)
  %6 = load i32, i32* %2, align 4, !tbaa !5
  %7 = icmp eq i32 %6, 0
  br i1 %7, label %10, label %8

8:                                                ; preds = %0
  %9 = icmp sgt i32 %6, 0
  br i1 %9, label %17, label %32

10:                                               ; preds = %0
  %11 = call i32 @puts(i8* nonnull dereferenceable(1) getelementptr inbounds ([2 x i8], [2 x i8]* @str, i64 0, i64 0))
  br label %32

12:                                               ; preds = %17
  %13 = trunc i64 %23 to i32
  store i32 %22, i32* %2, align 4, !tbaa !5
  %14 = icmp ugt i32 %13, 1
  br i1 %14, label %15, label %32

15:                                               ; preds = %12
  %16 = and i64 %23, 4294967295
  br label %25

17:                                               ; preds = %8, %17
  %18 = phi i64 [ %23, %17 ], [ 1, %8 ]
  %19 = phi i32 [ %22, %17 ], [ %6, %8 ]
  %20 = urem i32 %19, 10
  %21 = getelementptr inbounds [10 x i32], [10 x i32]* %1, i64 0, i64 %18
  store i32 %20, i32* %21, align 4, !tbaa !5
  %22 = udiv i32 %19, 10
  %23 = add nuw i64 %18, 1
  %24 = icmp ult i32 %19, 10
  br i1 %24, label %12, label %17, !llvm.loop !9

25:                                               ; preds = %15, %25
  %26 = phi i64 [ 1, %15 ], [ %30, %25 ]
  %27 = getelementptr inbounds [10 x i32], [10 x i32]* %1, i64 0, i64 %26
  %28 = load i32, i32* %27, align 4, !tbaa !5
  %29 = call i32 (i8*, ...) @printf(i8* nonnull dereferenceable(1) getelementptr inbounds ([3 x i8], [3 x i8]* @.str, i64 0, i64 0), i32 %28)
  %30 = add nuw nsw i64 %26, 1
  %31 = icmp eq i64 %30, %16
  br i1 %31, label %32, label %25, !llvm.loop !11

32:                                               ; preds = %25, %8, %12, %10
  call void @llvm.lifetime.end.p0i8(i64 4, i8* nonnull %4) #4
  call void @llvm.lifetime.end.p0i8(i64 40, i8* nonnull %3) #4
  ret i32 0
}

; Function Attrs: argmemonly mustprogress nofree nosync nounwind willreturn
declare void @llvm.lifetime.start.p0i8(i64 immarg, i8* nocapture) #1

; Function Attrs: nofree nounwind
declare noundef i32 @__isoc99_scanf(i8* nocapture noundef readonly, ...) local_unnamed_addr #2

; Function Attrs: nofree nounwind
declare noundef i32 @printf(i8* nocapture noundef readonly, ...) local_unnamed_addr #2

; Function Attrs: argmemonly mustprogress nofree nosync nounwind willreturn
declare void @llvm.lifetime.end.p0i8(i64 immarg, i8* nocapture) #1

; Function Attrs: nofree nounwind
declare noundef i32 @puts(i8* nocapture noundef readonly) local_unnamed_addr #3


!llvm.module.flags = !{!0, !1, !2, !3}
!llvm.ident = !{!4}

!0 = !{i32 1, !"wchar_size", i32 4}
!1 = !{i32 7, !"PIC Level", i32 2}
!2 = !{i32 7, !"PIE Level", i32 2}
!3 = !{i32 7, !"uwtable", i32 1}
!4 = !{!"clang version 13.0.0"}
!5 = !{!6, !6, i64 0}
!6 = !{!"int", !7, i64 0}
!7 = !{!"omnipotent char", !8, i64 0}
!8 = !{!"Simple C/C++ TBAA"}
!9 = distinct !{!9, !10}
!10 = !{!"llvm.loop.mustprogress"}
!11 = distinct !{!11, !10}
